; Function Attrs: mustprogress nofree norecurse nosync nounwind willreturn memory(argmem: write) uwtable
define dso_local void @_ZN5clang18CXXCtorInitializerC2ERNS_10ASTContextEPNS_9FieldDeclENS_14SourceLocationES5_PNS_4ExprES5_(ptr noundef nonnull writeonly align 8 captures(none) dereferenceable(32) initializes((0, 30)) %0, ptr nonnull readnone align 8 captures(none) %1, ptr noundef %2, i32 %3, i32 %4, ptr noundef %5, i32 %6) unnamed_addr #11 align 2 {
  %8 = ptrtoint ptr %2 to i64
  %9 = and i64 %8, -7
  %10 = or disjoint i64 %9, 2
  store i64 %10, ptr %0, align 8
  %11 = getelementptr inbounds nuw i8, ptr %0, i64 8
  store ptr %5, ptr %11, align 8
  %12 = getelementptr inbounds nuw i8, ptr %0, i64 16
  store i32 %3, ptr %12, align 8
  %13 = getelementptr inbounds nuw i8, ptr %0, i64 20
  store i32 %4, ptr %13, align 4
  %14 = getelementptr inbounds nuw i8, ptr %0, i64 24
  store i32 %6, ptr %14, align 8
  %15 = getelementptr inbounds nuw i8, ptr %0, i64 28
  store i16 0, ptr %15, align 4
  ret void
}